target datalayout = "e-m:e-p270:32:32-p271:32:32-p272:64:64-i64:64-i128:128-f80:128-n8:16:32:64-S128"
target triple = "x86_64-pc-linux-gnu"

@.str.303 = private unnamed_addr constant [5 x i8] c"http\00", align 1
@proto_http = internal global i32 0, align 4
@http_tcp_handle = internal global ptr null, align 8
@http_sctp_handle = internal global ptr null, align 8
@global_http_tls_range = internal global ptr null, align 8
@.str.343 = private unnamed_addr constant [9 x i8] c"tcp.port\00", align 1
@.str.345 = private unnamed_addr constant [6 x i8] c"http2\00", align 1
@.str.366 = private unnamed_addr constant [13 x i8] c"message/http\00", align 1
@proto_message_http = internal global i32 0, align 4
@.str.368 = private unnamed_addr constant [11 x i8] c"media_type\00", align 1
@.str.369 = private unnamed_addr constant [4 x i8] c"tcp\00", align 1
@.str.370 = private unnamed_addr constant [14 x i8] c"HTTP over TCP\00", align 1
@.str.371 = private unnamed_addr constant [9 x i8] c"http_tcp\00", align 1
@.str.372 = private unnamed_addr constant [4 x i8] c"tls\00", align 1
@.str.373 = private unnamed_addr constant [14 x i8] c"HTTP over TLS\00", align 1
@.str.374 = private unnamed_addr constant [9 x i8] c"http_tls\00", align 1
@proto_http2 = internal global i32 0, align 4
@.str.375 = private unnamed_addr constant [49 x i8] c"80,3128,3132,5985,8080,8088,11371,1900,2869,2710\00", align 1
@.str.376 = private unnamed_addr constant [10 x i8] c"sctp.port\00", align 1
@.str.377 = private unnamed_addr constant [3 x i8] c"80\00", align 1
@media_type_subdissector_table = internal global ptr null, align 8
@.str.378 = private unnamed_addr constant [23 x i8] c"streaming_content_type\00", align 1
@streaming_content_type_dissector_table = internal global ptr null, align 8
@http_tcp_range = internal global ptr null, align 8
@http_sctp_range = internal global ptr null, align 8
@http_tls_range = internal global ptr null, align 8

; Function Attrs: null_pointer_is_valid sspstrong uwtable
define internal void @reinit_http() #0 {
  %1 = call ptr @prefs_get_range_value(ptr noundef @.str.303, ptr noundef @.str.343)
  store ptr %1, ptr @http_tcp_range, align 8
  %2 = call ptr @prefs_get_range_value(ptr noundef @.str.303, ptr noundef @.str.376)
  store ptr %2, ptr @http_sctp_range, align 8
  %3 = load ptr, ptr @http_tls_range, align 8
  call void @range_foreach(ptr noundef %3, ptr noundef @range_delete_http_tls_callback, ptr noundef null)
  %4 = call ptr @wmem_epan_scope()
  %5 = load ptr, ptr @http_tls_range, align 8
  call void @wmem_free(ptr noundef %4, ptr noundef %5)
  %6 = call ptr @wmem_epan_scope()
  %7 = load ptr, ptr @global_http_tls_range, align 8
  %8 = call ptr @range_copy(ptr noundef %6, ptr noundef %7)
  store ptr %8, ptr @http_tls_range, align 8
  %9 = load ptr, ptr @http_tls_range, align 8
  call void @range_foreach(ptr noundef %9, ptr noundef @range_add_http_tls_callback, ptr noundef null)
  ret void
}

; Function Attrs: null_pointer_is_valid sspstrong uwtable
define hidden void @proto_reg_handoff_message_http() #0 {
  %1 = alloca ptr, align 8
  call void @llvm.lifetime.start.p0(i64 8, ptr %1) #19
  %2 = load i32, ptr @proto_message_http, align 4
  %3 = call ptr @create_dissector_handle(ptr noundef @dissect_message_http, i32 noundef %2)
  store ptr %3, ptr %1, align 8
  %4 = load ptr, ptr %1, align 8
  call void @dissector_add_string(ptr noundef @.str.368, ptr noundef @.str.366, ptr noundef %4)
  %5 = load i32, ptr @proto_http, align 4
  call void @heur_dissector_add(ptr noundef @.str.369, ptr noundef @dissect_http_heur_tcp, ptr noundef @.str.370, ptr noundef @.str.371, i32 noundef %5, i32 noundef 1)
  %6 = load i32, ptr @proto_http, align 4
  call void @heur_dissector_add(ptr noundef @.str.372, ptr noundef @dissect_http_heur_tls, ptr noundef @.str.373, ptr noundef @.str.374, i32 noundef %6, i32 noundef 1)
  %7 = call i32 @proto_get_id_by_filter_name(ptr noundef @.str.345)
  store i32 %7, ptr @proto_http2, align 4
  %8 = load ptr, ptr @http_tcp_handle, align 8
  call void @dissector_add_uint_range_with_preference(ptr noundef @.str.343, ptr noundef @.str.375, ptr noundef %8)
  %9 = load ptr, ptr @http_sctp_handle, align 8
  call void @dissector_add_uint_range_with_preference(ptr noundef @.str.376, ptr noundef @.str.377, ptr noundef %9)
  %10 = call ptr @find_dissector_table(ptr noundef @.str.368)
  store ptr %10, ptr @media_type_subdissector_table, align 8
  %11 = call ptr @find_dissector_table(ptr noundef @.str.378)
  store ptr %11, ptr @streaming_content_type_dissector_table, align 8
  call void @reinit_http()
  call void @llvm.lifetime.end.p0(i64 8, ptr %1) #19
  ret void
}