; Function Attrs: null_pointer_is_valid sspstrong uwtable
define hidden void @proto_reg_handoff_message_http() local_unnamed_addr #0 {
  %1 = load i32, ptr @proto_message_http, align 4
  %2 = tail call ptr @create_dissector_handle(ptr noundef nonnull @dissect_message_http, i32 noundef %1)
  tail call void @dissector_add_string(ptr noundef nonnull @.str.368, ptr noundef nonnull @.str.366, ptr noundef %2)
  %3 = load i32, ptr @proto_http, align 4
  tail call void @heur_dissector_add(ptr noundef nonnull @.str.369, ptr noundef nonnull @dissect_http_heur_tcp, ptr noundef nonnull @.str.370, ptr noundef nonnull @.str.371, i32 noundef %3, i32 noundef 1)
  %4 = load i32, ptr @proto_http, align 4
  tail call void @heur_dissector_add(ptr noundef nonnull @.str.372, ptr noundef nonnull @dissect_http_heur_tls, ptr noundef nonnull @.str.373, ptr noundef nonnull @.str.374, i32 noundef %4, i32 noundef 1)
  %5 = tail call i32 @proto_get_id_by_filter_name(ptr noundef nonnull @.str.345)
  store i32 %5, ptr @proto_http2, align 4
  %6 = load ptr, ptr @http_tcp_handle, align 8
  tail call void @dissector_add_uint_range_with_preference(ptr noundef nonnull @.str.343, ptr noundef nonnull @.str.375, ptr noundef %6)
  %7 = load ptr, ptr @http_sctp_handle, align 8
  tail call void @dissector_add_uint_range_with_preference(ptr noundef nonnull @.str.376, ptr noundef nonnull @.str.377, ptr noundef %7)
  %8 = tail call ptr @find_dissector_table(ptr noundef nonnull @.str.368)
  store ptr %8, ptr @media_type_subdissector_table, align 8
  %9 = tail call ptr @find_dissector_table(ptr noundef nonnull @.str.378)
  store ptr %9, ptr @streaming_content_type_dissector_table, align 8
  %10 = tail call ptr @prefs_get_range_value(ptr noundef nonnull @.str.303, ptr noundef nonnull @.str.343)
  store ptr %10, ptr @http_tcp_range, align 8
  %11 = tail call ptr @prefs_get_range_value(ptr noundef nonnull @.str.303, ptr noundef nonnull @.str.376)
  store ptr %11, ptr @http_sctp_range, align 8
  %12 = load ptr, ptr @http_tls_range, align 8
  tail call void @range_foreach(ptr noundef %12, ptr noundef nonnull @range_delete_http_tls_callback, ptr noundef null)
  %13 = tail call ptr @wmem_epan_scope()
  %14 = load ptr, ptr @http_tls_range, align 8
  tail call void @wmem_free(ptr noundef %13, ptr noundef %14)
  %15 = tail call ptr @wmem_epan_scope()
  %16 = load ptr, ptr @global_http_tls_range, align 8
  %17 = tail call ptr @range_copy(ptr noundef %15, ptr noundef %16)
  store ptr %17, ptr @http_tls_range, align 8
  tail call void @range_foreach(ptr noundef %17, ptr noundef nonnull @range_add_http_tls_callback, ptr noundef null)
  ret void
}